; Function Attrs: nounwind uwtable
define noalias noundef ptr @Fra_SmlSimulateSeq(ptr noundef %0, i32 noundef %1, i32 noundef %2, i32 noundef %3, i32 noundef %4) local_unnamed_addr #6 {
  %6 = getelementptr i8, ptr %0, i64 32
  %.val.i = load ptr, ptr %6, align 8, !tbaa !113
  %7 = getelementptr i8, ptr %.val.i, i64 4
  %.val.val.i = load i32, ptr %7, align 4, !tbaa !46
  %8 = sext i32 %.val.val.i to i64
  %9 = add nsw i32 %2, %1
  %10 = sext i32 %9 to i64
  %11 = sext i32 %3 to i64
  %12 = shl nsw i64 %10, 2
  %13 = mul i64 %12, %11
  %14 = mul i64 %13, %8
  %15 = add i64 %14, 40
  %16 = tail call noalias ptr @malloc(i64 noundef %15) #21
  %17 = add i64 %13, 40
  tail call void @llvm.memset.p0.i64(ptr align 8 %16, i8 0, i64 %17, i1 false)
  store ptr %0, ptr %16, align 8, !tbaa !85
  %18 = getelementptr inbounds nuw i8, ptr %16, i64 8
  store i32 %1, ptr %18, align 8, !tbaa !134
  %19 = getelementptr inbounds nuw i8, ptr %16, i64 12
  store i32 %9, ptr %19, align 4, !tbaa !90
  %20 = getelementptr inbounds nuw i8, ptr %16, i64 16
  store i32 %3, ptr %20, align 8, !tbaa !83
  %21 = mul nsw i32 %9, %3
  %22 = getelementptr inbounds nuw i8, ptr %16, i64 20
  store i32 %21, ptr %22, align 4, !tbaa !25
  %23 = mul nsw i32 %3, %1
  %24 = getelementptr inbounds nuw i8, ptr %16, i64 24
  store i32 %23, ptr %24, align 8, !tbaa !27
  tail call void @Fra_SmlInitialize(ptr noundef nonnull %16, i32 noundef 1)
  tail call void @Fra_SmlSimulateOne(ptr noundef nonnull %16)
  %.not = icmp eq i32 %4, 0
  br i1 %.not, label %50, label %25

25:                                               ; preds = %5
  %26 = load ptr, ptr %16, align 8, !tbaa !85
  %27 = getelementptr i8, ptr %26, i64 140
  %.val10.i = load i32, ptr %27, align 4, !tbaa !28
  %28 = getelementptr i8, ptr %26, i64 104
  %.val.i9 = load i32, ptr %28, align 8, !tbaa !39
  %29 = sub nsw i32 %.val10.i, %.val.i9
  %30 = icmp sgt i32 %29, 0
  br i1 %30, label %.lr.ph.i, label %Fra_SmlCheckNonConstOutputs.exit

.lr.ph.i:                                         ; preds = %25
  %31 = getelementptr inbounds nuw i8, ptr %26, i64 24
  %32 = load ptr, ptr %31, align 8, !tbaa !80
  %33 = getelementptr i8, ptr %32, i64 8
  %.val9.i = load ptr, ptr %33, align 8, !tbaa !51
  %34 = getelementptr inbounds nuw i8, ptr %16, i64 40
  %35 = load i32, ptr %22, align 4, !tbaa !25
  %36 = load i32, ptr %24, align 8, !tbaa !27
  %37 = icmp slt i32 %36, %35
  %38 = sext i32 %36 to i64
  br i1 %37, label %.lr.ph.preheader.i.us.preheader.i, label %Fra_SmlCheckNonConstOutputs.exit

.lr.ph.preheader.i.us.preheader.i:                ; preds = %.lr.ph.i
  %wide.trip.count.i = zext nneg i32 %29 to i64
  br label %.lr.ph.preheader.i.us.i

.lr.ph.preheader.i.us.i:                          ; preds = %.loopexit.us.i, %.lr.ph.preheader.i.us.preheader.i
  %indvars.iv.i = phi i64 [ 0, %.lr.ph.preheader.i.us.preheader.i ], [ %indvars.iv.next.i, %.loopexit.us.i ]
  %39 = getelementptr inbounds nuw ptr, ptr %.val9.i, i64 %indvars.iv.i
  %40 = load ptr, ptr %39, align 8, !tbaa !65
  %41 = getelementptr inbounds nuw i8, ptr %40, i64 36
  %42 = load i32, ptr %41, align 4, !tbaa !22
  %43 = mul nsw i32 %42, %35
  %44 = sext i32 %43 to i64
  %45 = getelementptr inbounds i32, ptr %34, i64 %44
  br label %.lr.ph.i.us.i

.lr.ph.i.us.i:                                    ; preds = %48, %.lr.ph.preheader.i.us.i
  %indvars.iv.i.us.i = phi i64 [ %38, %.lr.ph.preheader.i.us.i ], [ %indvars.iv.next.i.us.i, %48 ]
  %46 = getelementptr inbounds i32, ptr %45, i64 %indvars.iv.i.us.i
  %47 = load i32, ptr %46, align 4, !tbaa !28
  %.not.i.us.i = icmp eq i32 %47, 0
  br i1 %.not.i.us.i, label %48, label %Fra_SmlCheckNonConstOutputs.exit

48:                                               ; preds = %.lr.ph.i.us.i
  %indvars.iv.next.i.us.i = add nsw i64 %indvars.iv.i.us.i, 1
  %lftr.wideiv.i.us.i = trunc i64 %indvars.iv.next.i.us.i to i32
  %exitcond.not.i.us.i = icmp eq i32 %35, %lftr.wideiv.i.us.i
  br i1 %exitcond.not.i.us.i, label %.loopexit.us.i, label %.lr.ph.i.us.i, !llvm.loop !34

.loopexit.us.i:                                   ; preds = %48
  %indvars.iv.next.i = add nuw nsw i64 %indvars.iv.i, 1
  %exitcond.not.i = icmp eq i64 %indvars.iv.next.i, %wide.trip.count.i
  br i1 %exitcond.not.i, label %Fra_SmlCheckNonConstOutputs.exit, label %.lr.ph.preheader.i.us.i, !llvm.loop !109

Fra_SmlCheckNonConstOutputs.exit:                 ; preds = %.loopexit.us.i, %.lr.ph.i.us.i, %25, %.lr.ph.i
  %.08.i = phi i32 [ 0, %25 ], [ 0, %.lr.ph.i ], [ 1, %.lr.ph.i.us.i ], [ 0, %.loopexit.us.i ]
  %49 = getelementptr inbounds nuw i8, ptr %16, i64 28
  store i32 %.08.i, ptr %49, align 4, !tbaa !135
  br label %50

50:                                               ; preds = %Fra_SmlCheckNonConstOutputs.exit, %5
  ret ptr %16
}